target datalayout = "e-m:e-p270:32:32-p271:32:32-p272:64:64-i64:64-i128:128-f80:128-n8:16:32:64-S128"
target triple = "x86_64-unknown-linux-gnu"

%struct.TimersState = type { i64, i64, %struct.QemuSeqLock, %struct.QemuSpin, i16, i16, i64, i64, i64, i64, i64, ptr, ptr, ptr }
%struct.QemuSeqLock = type { i32 }
%struct.QemuSpin = type { i32 }

@timers_state = external global %struct.TimersState, align 8
@.str = private unnamed_addr constant [34 x i8] c"../qemu/accel/tcg/icount-common.c\00", align 1
@__func__.icount_round = private unnamed_addr constant [13 x i8] c"icount_round\00", align 1

; Function Attrs: nounwind sspstrong uwtable
define dso_local i64 @icount_round(i64 noundef %count) #0 {
entry:
  %count.addr = alloca i64, align 8
  %shift = alloca i32, align 4
  %tmp = alloca i16, align 2
  %atomic-temp = alloca i16, align 2
  store i64 %count, ptr %count.addr, align 8
  br label %while.cond

while.cond:                                       ; preds = %do.end, %entry
  br i1 false, label %while.body, label %while.end

while.body:                                       ; preds = %while.cond
  br label %do.body

do.body:                                          ; preds = %while.body
  call void @g_assertion_message_expr(ptr noundef null, ptr noundef @.str, i32 noundef 229, ptr noundef @__func__.icount_round, ptr noundef null) #7
  unreachable

do.end:                                           ; No predecessors!
  br label %while.cond

while.end:                                        ; preds = %while.cond
  %0 = getelementptr inbounds %struct.TimersState, ptr @timers_state, i32 0, i32 5
  %1 = load atomic i16, ptr %0 monotonic, align 2
  store i16 %1, ptr %atomic-temp, align 2
  %2 = load i16, ptr %atomic-temp, align 2
  store i16 %2, ptr %tmp, align 2
  %3 = load i16, ptr %tmp, align 2
  %conv = sext i16 %3 to i32
  store i32 %conv, ptr %shift, align 4
  %4 = load i64, ptr %count.addr, align 8
  %5 = load i32, ptr %shift, align 4
  %shl = shl i32 1, %5
  %conv1 = sext i32 %shl to i64
  %add = add i64 %4, %conv1
  %sub = sub i64 %add, 1
  %6 = load i32, ptr %shift, align 4
  %sh_prom = zext i32 %6 to i64
  %shr = ashr i64 %sub, %sh_prom
  ret i64 %shr
}