; Function Attrs: mustprogress nofree norecurse nounwind sspstrong willreturn memory(readwrite, argmem: none, inaccessiblemem: none) uwtable
define dso_local i64 @icount_round(i64 noundef %count) local_unnamed_addr #1 {
entry:
  %0 = load atomic i16, ptr getelementptr inbounds nuw (i8, ptr @timers_state, i64 26) monotonic, align 2
  %conv = sext i16 %0 to i32
  %shl = shl nuw i32 1, %conv
  %conv1 = sext i32 %shl to i64
  %add = add i64 %count, -1
  %sub = add i64 %add, %conv1
  %sh_prom = zext nneg i32 %conv to i64
  %shr = ashr i64 %sub, %sh_prom
  ret i64 %shr
}